
./bin/exampleFastSerial.elf:     file format elf32-littleriscv


Disassembly of section .isr_vector:

00000000 <_start_reset_vector>:
   0:	0040006f          	j	4 <reset_vector>

00000004 <reset_vector>:
   4:	30047073          	csrci	mstatus,8
    # Disable global interrupt. */
    csrci mstatus, 8

	.option push
	.option norelax
	la gp, __global_pointer$
   8:	10000197          	auipc	gp,0x10000
   c:	7f818193          	addi	gp,gp,2040 # 10000800 <__global_pointer$>
	.option pop

	la sp, _fstack
  10:	22018113          	addi	sp,gp,544 # 10000a20 <_fstack>
  14:	00012023          	sw	zero,0(sp)
	sw x0, 0(sp)
  18:	00012223          	sw	zero,4(sp)
	sw x0, 4(sp)
  1c:	05400293          	li	t0,84

	la t0, trap_vector
  20:	30529073          	csrw	mtvec,t0
  24:	36c00513          	li	a0,876
	csrw mtvec, t0
  28:	10000597          	auipc	a1,0x10000

	//initialize C data 
	la a0, _sidata  /*from */
  2c:	fd858593          	addi	a1,a1,-40 # 10000000 <_sdata>
  30:	80418613          	addi	a2,gp,-2044 # 10000004 <_edata>
	la a1, _sdata   /* to */
  34:	00c58c63          	beq	a1,a2,4c <DONE>

00000038 <TOP>:
  38:	00052283          	lw	t0,0(a0)
	la a2, _edata  /* end */
  3c:	0055a023          	sw	t0,0(a1)
  40:	00450513          	addi	a0,a0,4
	beq	a1,a2, DONE
  44:	00460593          	addi	a1,a2,4
TOP:	
	lw	t0, (a0)
  48:	fec5e8e3          	bltu	a1,a2,38 <TOP>

0000004c <DONE>:
  4c:	098000ef          	jal	ra,e4 <_start>

00000050 <LOOP>:
  50:	0000006f          	j	50 <LOOP>

00000054 <trap_vector>:
  54:	fc010113          	addi	sp,sp,-64
	sw t0, (a1)
	addi a0,a0,4
	addi a1,a2,4
	bltu a1,a2, TOP
  58:	00112023          	sw	ra,0(sp)
DONE:	

	call _start
  5c:	00512223          	sw	t0,4(sp)
  60:	00612423          	sw	t1,8(sp)
LOOP:	j LOOP
  64:	00712623          	sw	t2,12(sp)

trap_vector:
	addi sp, sp, -16*4
  68:	00a12823          	sw	a0,16(sp)
	sw ra,  0*4(sp)
  6c:	00b12a23          	sw	a1,20(sp)
	sw t0,  1*4(sp)
  70:	00c12c23          	sw	a2,24(sp)
	sw t1,  2*4(sp)
  74:	00d12e23          	sw	a3,28(sp)
	sw t2,  3*4(sp)
  78:	02e12023          	sw	a4,32(sp)
	sw a0,  4*4(sp)
  7c:	02f12223          	sw	a5,36(sp)
	sw a1,  5*4(sp)
  80:	03012423          	sw	a6,40(sp)
	sw a2,  6*4(sp)
  84:	03112623          	sw	a7,44(sp)
	sw a3,  7*4(sp)
  88:	03c12823          	sw	t3,48(sp)
	sw a4,  8*4(sp)
  8c:	03d12a23          	sw	t4,52(sp)
	sw a5,  9*4(sp)
  90:	03e12c23          	sw	t5,56(sp)
	sw a6, 10*4(sp)
  94:	03f12e23          	sw	t6,60(sp)
	sw a7, 11*4(sp)
  98:	240000ef          	jal	ra,2d8 <isr>
	sw t3, 12*4(sp)
  9c:	00012083          	lw	ra,0(sp)
	sw t4, 13*4(sp)
  a0:	00412283          	lw	t0,4(sp)
	sw t5, 14*4(sp)
  a4:	00812303          	lw	t1,8(sp)
	sw t6, 15*4(sp)
  a8:	00c12383          	lw	t2,12(sp)
	call isr
  ac:	01012503          	lw	a0,16(sp)
  b0:	01412583          	lw	a1,20(sp)
	lw ra,  0*4(sp)
  b4:	01812603          	lw	a2,24(sp)
	lw t0,  1*4(sp)
  b8:	01c12683          	lw	a3,28(sp)
	lw t1,  2*4(sp)
  bc:	02012703          	lw	a4,32(sp)
	lw t2,  3*4(sp)
  c0:	02412783          	lw	a5,36(sp)
	lw a0,  4*4(sp)
  c4:	02812803          	lw	a6,40(sp)
	lw a1,  5*4(sp)
  c8:	02c12883          	lw	a7,44(sp)
	lw a2,  6*4(sp)
  cc:	03012e03          	lw	t3,48(sp)
	lw a3,  7*4(sp)
  d0:	03412e83          	lw	t4,52(sp)
	lw a4,  8*4(sp)
  d4:	03812f03          	lw	t5,56(sp)
	lw a5,  9*4(sp)
  d8:	03c12f83          	lw	t6,60(sp)
	lw a6, 10*4(sp)
  dc:	04010113          	addi	sp,sp,64
	lw a7, 11*4(sp)
  e0:	30200073          	mret

Disassembly of section .text:

000000e4 <_start>:
	lw t3, 12*4(sp)
  e4:	10000197          	auipc	gp,0x10000
	lw t4, 13*4(sp)
  e8:	71c18193          	addi	gp,gp,1820 # 10000800 <__global_pointer$>
	lw t5, 14*4(sp)
  ec:	80418513          	addi	a0,gp,-2044 # 10000004 <_edata>
	lw t6, 15*4(sp)
  f0:	82018613          	addi	a2,gp,-2016 # 10000020 <_end>
	addi sp, sp, 16*4
  f4:	40a60633          	sub	a2,a2,a0
	mret
  f8:	00000593          	li	a1,0
  fc:	038000ef          	jal	ra,134 <memset>
 100:	00000517          	auipc	a0,0x0
 104:	f0050513          	addi	a0,a0,-256 # 0 <_start_reset_vector>
 108:	00050a63          	beqz	a0,11c <_start+0x38>
 10c:	00000517          	auipc	a0,0x0
 110:	ef450513          	addi	a0,a0,-268 # 0 <_start_reset_vector>
 114:	00000097          	auipc	ra,0x0
 118:	000000e7          	jalr	zero # 0 <_start_reset_vector>
 11c:	1c0000ef          	jal	ra,2dc <__libc_init_array>
 120:	00012503          	lw	a0,0(sp)
 124:	00410593          	addi	a1,sp,4
 128:	00000613          	li	a2,0
 12c:	154000ef          	jal	ra,280 <main>
 130:	1a40006f          	j	2d4 <exit>

00000134 <memset>:
 134:	00f00313          	li	t1,15
 138:	00050713          	mv	a4,a0
 13c:	02c37e63          	bgeu	t1,a2,178 <memset+0x44>
 140:	00f77793          	andi	a5,a4,15
 144:	0a079063          	bnez	a5,1e4 <memset+0xb0>
 148:	08059263          	bnez	a1,1cc <memset+0x98>
 14c:	ff067693          	andi	a3,a2,-16
 150:	00f67613          	andi	a2,a2,15
 154:	00e686b3          	add	a3,a3,a4
 158:	00b72023          	sw	a1,0(a4)
 15c:	00b72223          	sw	a1,4(a4)
 160:	00b72423          	sw	a1,8(a4)
 164:	00b72623          	sw	a1,12(a4)
 168:	01070713          	addi	a4,a4,16
 16c:	fed766e3          	bltu	a4,a3,158 <memset+0x24>
 170:	00061463          	bnez	a2,178 <memset+0x44>
 174:	00008067          	ret
 178:	40c306b3          	sub	a3,t1,a2
 17c:	00269693          	slli	a3,a3,0x2
 180:	00000297          	auipc	t0,0x0
 184:	005686b3          	add	a3,a3,t0
 188:	00c68067          	jr	12(a3)
 18c:	00b70723          	sb	a1,14(a4)
 190:	00b706a3          	sb	a1,13(a4)
 194:	00b70623          	sb	a1,12(a4)
 198:	00b705a3          	sb	a1,11(a4)
 19c:	00b70523          	sb	a1,10(a4)
 1a0:	00b704a3          	sb	a1,9(a4)
 1a4:	00b70423          	sb	a1,8(a4)
 1a8:	00b703a3          	sb	a1,7(a4)
 1ac:	00b70323          	sb	a1,6(a4)
 1b0:	00b702a3          	sb	a1,5(a4)
 1b4:	00b70223          	sb	a1,4(a4)
 1b8:	00b701a3          	sb	a1,3(a4)
 1bc:	00b70123          	sb	a1,2(a4)
 1c0:	00b700a3          	sb	a1,1(a4)
 1c4:	00b70023          	sb	a1,0(a4)
 1c8:	00008067          	ret
 1cc:	0ff5f593          	andi	a1,a1,255
 1d0:	00859693          	slli	a3,a1,0x8
 1d4:	00d5e5b3          	or	a1,a1,a3
 1d8:	01059693          	slli	a3,a1,0x10
 1dc:	00d5e5b3          	or	a1,a1,a3
 1e0:	f6dff06f          	j	14c <memset+0x18>
 1e4:	00279693          	slli	a3,a5,0x2
 1e8:	00000297          	auipc	t0,0x0
 1ec:	005686b3          	add	a3,a3,t0
 1f0:	00008293          	mv	t0,ra
 1f4:	fa0680e7          	jalr	-96(a3)
 1f8:	00028093          	mv	ra,t0
 1fc:	ff078793          	addi	a5,a5,-16
 200:	40f70733          	sub	a4,a4,a5
 204:	00f60633          	add	a2,a2,a5
 208:	f6c378e3          	bgeu	t1,a2,178 <memset+0x44>
 20c:	f3dff06f          	j	148 <memset+0x14>

00000210 <__do_global_dtors_aux>:
 210:	81c1c783          	lbu	a5,-2020(gp) # 1000001c <__bss_end__>
 214:	04079263          	bnez	a5,258 <__do_global_dtors_aux+0x48>
 218:	00000797          	auipc	a5,0x0
 21c:	de878793          	addi	a5,a5,-536 # 0 <_start_reset_vector>
 220:	02078663          	beqz	a5,24c <__do_global_dtors_aux+0x3c>
 224:	ff010113          	addi	sp,sp,-16
 228:	36000513          	li	a0,864
 22c:	00112623          	sw	ra,12(sp)
 230:	00000097          	auipc	ra,0x0
 234:	000000e7          	jalr	zero # 0 <_start_reset_vector>
 238:	00c12083          	lw	ra,12(sp)
 23c:	00100793          	li	a5,1
 240:	80f18e23          	sb	a5,-2020(gp) # 1000001c <__bss_end__>
 244:	01010113          	addi	sp,sp,16
 248:	00008067          	ret
 24c:	00100793          	li	a5,1
 250:	80f18e23          	sb	a5,-2020(gp) # 1000001c <__bss_end__>
 254:	00008067          	ret
 258:	00008067          	ret

0000025c <frame_dummy>:
 25c:	00000797          	auipc	a5,0x0
 260:	da478793          	addi	a5,a5,-604 # 0 <_start_reset_vector>
 264:	00078c63          	beqz	a5,27c <frame_dummy+0x20>
 268:	10000597          	auipc	a1,0x10000
 26c:	d9c58593          	addi	a1,a1,-612 # 10000004 <_edata>
 270:	36000513          	li	a0,864
 274:	00000317          	auipc	t1,0x0
 278:	00000067          	jr	zero # 0 <_start_reset_vector>
 27c:	00008067          	ret

00000280 <main>:
#define SLOW_DELAY 32000
#define LED_0 1
#define LED_7 (1<<7)
#define LED_4 (1<<4)
int main(int argc, char **argv)
{
 280:	000088b7          	lui	a7,0x8
		for (int outchar = '0'; outchar <= '9'; ++outchar )
				FASTSERIAL_TX_REG = (uint32_t)outchar;
		FASTSERIAL_TX_REG = (uint32_t)0x0D;
		FASTSERIAL_TX_REG = (uint32_t)0x0A;
		#else
		if( (val = FASTSERIAL_RX_REG) & FASTSERIAL_STATUS_RX_READY)
 284:	930007b7          	lui	a5,0x93000
		{
			val &= 0xFF;
			if (val == '0')
 288:	03000593          	li	a1,48
			{
				GPIO_SET_TOGGLE_REG  = LED_0;
 28c:	91000637          	lui	a2,0x91000
 290:	00100313          	li	t1,1
				FASTSERIAL_TX_REG = (uint32_t)val & 0xFF;
				
				FASTSERIAL_TX_REG = ((uint32_t)val & 0xFF) + 1;
 294:	03100513          	li	a0,49
		}

		#endif
		if (led7Delay++ == SLOW_DELAY)
		{
			GPIO_SET_TOGGLE_REG  = LED_7;
 298:	08000813          	li	a6,128
{
 29c:	d0188693          	addi	a3,a7,-767 # 7d01 <_Min_Stack_Size+0x7501>
		if( (val = FASTSERIAL_RX_REG) & FASTSERIAL_STATUS_RX_READY)
 2a0:	0007a703          	lw	a4,0(a5) # 93000000 <_fstack+0x82fff5e0>
 2a4:	10077e13          	andi	t3,a4,256
 2a8:	000e0e63          	beqz	t3,2c4 <main+0x44>
			val &= 0xFF;
 2ac:	0ff77713          	andi	a4,a4,255
			if (val == '0')
 2b0:	00b71a63          	bne	a4,a1,2c4 <main+0x44>
				GPIO_SET_TOGGLE_REG  = LED_0;
 2b4:	00662623          	sw	t1,12(a2) # 9100000c <_fstack+0x80fff5ec>
				FASTSERIAL_TX_REG = (uint32_t)val & 0xFF;
 2b8:	00b7a223          	sw	a1,4(a5)
				FASTSERIAL_TX_REG = ((uint32_t)val & 0xFF) + 1;
 2bc:	00a7a223          	sw	a0,4(a5)
				FASTSERIAL_TX_REG = ((uint32_t)val & 0xFF) + 1;
 2c0:	00a7a223          	sw	a0,4(a5)
		if (led7Delay++ == SLOW_DELAY)
 2c4:	fff68693          	addi	a3,a3,-1
 2c8:	fc069ce3          	bnez	a3,2a0 <main+0x20>
			GPIO_SET_TOGGLE_REG  = LED_7;
 2cc:	01062623          	sw	a6,12(a2)
			led7Delay = 0;
 2d0:	fcdff06f          	j	29c <main+0x1c>

000002d4 <exit>:

extern "C"
 [[ noreturn ]] void exit( int rc)
{
	UNUSED(rc);
	for( ;; );
 2d4:	0000006f          	j	2d4 <exit>

000002d8 <isr>:

extern "C"
void isr(void)
{

}
 2d8:	00008067          	ret

000002dc <__libc_init_array>:
 2dc:	ff010113          	addi	sp,sp,-16
 2e0:	00812423          	sw	s0,8(sp)
 2e4:	01212023          	sw	s2,0(sp)
 2e8:	36400413          	li	s0,868
 2ec:	36400913          	li	s2,868
 2f0:	40890933          	sub	s2,s2,s0
 2f4:	00112623          	sw	ra,12(sp)
 2f8:	00912223          	sw	s1,4(sp)
 2fc:	40295913          	srai	s2,s2,0x2
 300:	00090e63          	beqz	s2,31c <__libc_init_array+0x40>
 304:	00000493          	li	s1,0
 308:	00042783          	lw	a5,0(s0)
 30c:	00148493          	addi	s1,s1,1
 310:	00440413          	addi	s0,s0,4
 314:	000780e7          	jalr	a5
 318:	fe9918e3          	bne	s2,s1,308 <__libc_init_array+0x2c>
 31c:	36400413          	li	s0,868
 320:	36800913          	li	s2,872
 324:	40890933          	sub	s2,s2,s0
 328:	40295913          	srai	s2,s2,0x2
 32c:	00090e63          	beqz	s2,348 <__libc_init_array+0x6c>
 330:	00000493          	li	s1,0
 334:	00042783          	lw	a5,0(s0)
 338:	00148493          	addi	s1,s1,1
 33c:	00440413          	addi	s0,s0,4
 340:	000780e7          	jalr	a5
 344:	fe9918e3          	bne	s2,s1,334 <__libc_init_array+0x58>
 348:	00c12083          	lw	ra,12(sp)
 34c:	00812403          	lw	s0,8(sp)
 350:	00412483          	lw	s1,4(sp)
 354:	00012903          	lw	s2,0(sp)
 358:	01010113          	addi	sp,sp,16
 35c:	00008067          	ret

00000360 <__EH_FRAME_BEGIN__>:
 360:	0000                	unimp
	...
